target datalayout = "e-m:e-p270:32:32-p271:32:32-p272:64:64-i64:64-i128:128-f80:128-n8:16:32:64-S128"
target triple = "x86_64-pc-linux-gnu"

%struct._value_string_ext = type { ptr, i32, i32, ptr, ptr }
%struct._packet_info = type { ptr, ptr, i32, i32, %struct.nstime_t, %struct.nstime_t, %struct.nstime_t, i32, ptr, ptr, ptr, ptr, %struct._address, %struct._address, %struct._address, %struct._address, %struct._address, %struct._address, i32, ptr, i32, %struct.anon, i32, i32, i32, i32, ptr, i32, ptr, ptr, i16, i16, i32, i32, i16, i32, i32, ptr, ptr, ptr, i8, i8, i16, i16, i16, i32, i16, i16, ptr, ptr, ptr, ptr, ptr, i32 }
%struct.nstime_t = type { i64, i32 }
%struct._address = type { i32, i32, ptr, ptr }
%struct.anon = type { i8, [3 x i8] }

@hf_ndps_record_mark = internal global i32 0, align 4
@hf_ndps_packet_type = internal global i32 0, align 4
@hf_ndps_length = internal global i32 0, align 4
@hf_ndps_xid = internal global i32 0, align 4
@hf_ndps_rpc_version = internal global i32 0, align 4
@hf_spx_ndps_program = internal global i32 0, align 4
@hf_spx_ndps_version = internal global i32 0, align 4
@hf_spx_ndps_func_print = internal global i32 0, align 4
@spx_ndps_print_func_vals_ext = internal global %struct._value_string_ext { ptr @_try_val_to_str_ext_init, i32 0, i32 37, ptr @spx_ndps_print_func_vals, ptr @.str.561 }, align 8
@hf_spx_ndps_func_notify = internal global i32 0, align 4
@spx_ndps_notify_func_vals_ext = internal global %struct._value_string_ext { ptr @_try_val_to_str_ext_init, i32 0, i32 18, ptr @spx_ndps_notify_func_vals, ptr @.str.599 }, align 8
@hf_spx_ndps_func_delivery = internal global i32 0, align 4
@hf_spx_ndps_func_registry = internal global i32 0, align 4
@spx_ndps_registry_func_vals_ext = internal global %struct._value_string_ext { ptr @_try_val_to_str_ext_init, i32 0, i32 13, ptr @spx_ndps_registry_func_vals, ptr @.str.621 }, align 8
@hf_spx_ndps_func_resman = internal global i32 0, align 4
@spx_ndps_resman_func_vals_ext = internal global %struct._value_string_ext { ptr @_try_val_to_str_ext_init, i32 0, i32 11, ptr @spx_ndps_resman_func_vals, ptr @.str.633 }, align 8
@hf_spx_ndps_func_broker = internal global i32 0, align 4
@spx_ndps_broker_func_vals_ext = internal global %struct._value_string_ext { ptr @_try_val_to_str_ext_init, i32 0, i32 9, ptr @spx_ndps_broker_func_vals, ptr @.str.642 }, align 8
@hf_ndps_auth_null = internal global i32 0, align 4
@hf_ndps_rpc_accept = internal global i32 0, align 4
@hf_ndps_rpc_rej_stat = internal global i32 0, align 4
@hf_ndps_data = internal global i32 0, align 4
@.str.1699 = private unnamed_addr constant [20 x i8] c"(Continuation Data)\00", align 1
@.str.1700 = private unnamed_addr constant [18 x i8] c"Data - (%d Bytes)\00", align 1
@.str.1701 = private unnamed_addr constant [8 x i8] c"R NDPS \00", align 1
@.str.1702 = private unnamed_addr constant [8 x i8] c"C NDPS \00", align 1
@.str.1703 = private unnamed_addr constant [3 x i8] c", \00", align 1

; Function Attrs: nounwind uwtable
define internal void @dissect_ndps(ptr noundef %0, ptr noundef %1, ptr noundef %2) #0 {
  %4 = alloca ptr, align 8
  %5 = alloca ptr, align 8
  %6 = alloca ptr, align 8
  %7 = alloca i32, align 4
  %8 = alloca i32, align 4
  %9 = alloca i32, align 4
  %10 = alloca i32, align 4
  %11 = alloca i32, align 4
  %12 = alloca i32, align 4
  %13 = alloca ptr, align 8
  %14 = alloca ptr, align 8
  store ptr %0, ptr %4, align 8
  store ptr %1, ptr %5, align 8
  store ptr %2, ptr %6, align 8
  %15 = load ptr, ptr %4, align 8
  %16 = call i32 @tvb_get_ntohl(ptr noundef %15, i32 noundef 8)
  store i32 %16, ptr %9, align 4
  %17 = load i32, ptr %9, align 4
  %18 = icmp ne i32 %17, 0
  br i1 %18, label %19, label %32

19:                                               ; preds = %3
  %20 = load i32, ptr %9, align 4
  %21 = icmp ne i32 %20, 1
  br i1 %21, label %22, label %32

22:                                               ; preds = %19
  %23 = load ptr, ptr %5, align 8
  %24 = getelementptr inbounds %struct._packet_info, ptr %23, i32 0, i32 1
  %25 = load ptr, ptr %24, align 8
  call void @col_set_str(ptr noundef %25, i32 noundef 25, ptr noundef @.str.1699)
  %26 = load ptr, ptr %6, align 8
  %27 = load i32, ptr @hf_ndps_data, align 4
  %28 = load ptr, ptr %4, align 8
  %29 = load ptr, ptr %4, align 8
  %30 = call i32 @tvb_reported_length(ptr noundef %29)
  %31 = call ptr (ptr, i32, ptr, i32, i32, ptr, ptr, ...) @proto_tree_add_bytes_format(ptr noundef %26, i32 noundef %27, ptr noundef %28, i32 noundef 0, i32 noundef -1, ptr noundef null, ptr noundef @.str.1700, i32 noundef %30)
  br label %215

32:                                               ; preds = %19, %3
  store i32 0, ptr %10, align 4
  %33 = load ptr, ptr %6, align 8
  %34 = load i32, ptr @hf_ndps_record_mark, align 4
  %35 = load ptr, ptr %4, align 8
  %36 = load i32, ptr %10, align 4
  %37 = call ptr @proto_tree_add_item(ptr noundef %33, i32 noundef %34, ptr noundef %35, i32 noundef %36, i32 noundef 2, i32 noundef 0)
  %38 = load i32, ptr %10, align 4
  %39 = add i32 %38, 2
  store i32 %39, ptr %10, align 4
  %40 = load ptr, ptr %6, align 8
  %41 = load i32, ptr @hf_ndps_length, align 4
  %42 = load ptr, ptr %4, align 8
  %43 = load i32, ptr %10, align 4
  %44 = call ptr @proto_tree_add_item(ptr noundef %40, i32 noundef %41, ptr noundef %42, i32 noundef %43, i32 noundef 2, i32 noundef 0)
  %45 = load i32, ptr %10, align 4
  %46 = add i32 %45, 2
  store i32 %46, ptr %10, align 4
  %47 = load ptr, ptr %4, align 8
  %48 = load i32, ptr %10, align 4
  %49 = call i32 @tvb_get_ntohl(ptr noundef %47, i32 noundef %48)
  store i32 %49, ptr %7, align 4
  %50 = load ptr, ptr %6, align 8
  %51 = load i32, ptr @hf_ndps_xid, align 4
  %52 = load ptr, ptr %4, align 8
  %53 = load i32, ptr %10, align 4
  %54 = load i32, ptr %7, align 4
  %55 = call ptr @proto_tree_add_uint(ptr noundef %50, i32 noundef %51, ptr noundef %52, i32 noundef %53, i32 noundef 4, i32 noundef %54)
  %56 = load i32, ptr %10, align 4
  %57 = add i32 %56, 4
  store i32 %57, ptr %10, align 4
  %58 = load ptr, ptr %4, align 8
  %59 = load i32, ptr %10, align 4
  %60 = call i32 @tvb_get_ntohl(ptr noundef %58, i32 noundef %59)
  store i32 %60, ptr %9, align 4
  %61 = load ptr, ptr %6, align 8
  %62 = load i32, ptr @hf_ndps_packet_type, align 4
  %63 = load ptr, ptr %4, align 8
  %64 = load i32, ptr %10, align 4
  %65 = load i32, ptr %9, align 4
  %66 = call ptr @proto_tree_add_uint(ptr noundef %61, i32 noundef %62, ptr noundef %63, i32 noundef %64, i32 noundef 4, i32 noundef %65)
  %67 = load i32, ptr %10, align 4
  %68 = add i32 %67, 4
  store i32 %68, ptr %10, align 4
  %69 = load i32, ptr %9, align 4
  %70 = icmp eq i32 %69, 1
  br i1 %70, label %71, label %111

71:                                               ; preds = %32
  %72 = load ptr, ptr %5, align 8
  %73 = getelementptr inbounds %struct._packet_info, ptr %72, i32 0, i32 1
  %74 = load ptr, ptr %73, align 8
  call void @col_set_str(ptr noundef %74, i32 noundef 25, ptr noundef @.str.1701)
  %75 = load ptr, ptr %6, align 8
  %76 = load i32, ptr @hf_ndps_rpc_accept, align 4
  %77 = load ptr, ptr %4, align 8
  %78 = load i32, ptr %10, align 4
  %79 = call ptr @proto_tree_add_item(ptr noundef %75, i32 noundef %76, ptr noundef %77, i32 noundef %78, i32 noundef 4, i32 noundef 0)
  %80 = load ptr, ptr %4, align 8
  %81 = load i32, ptr %10, align 4
  %82 = call i32 @tvb_get_ntohl(ptr noundef %80, i32 noundef %81)
  %83 = icmp eq i32 %82, 0
  br i1 %83, label %84, label %94

84:                                               ; preds = %71
  %85 = load i32, ptr %10, align 4
  %86 = add i32 %85, 4
  store i32 %86, ptr %10, align 4
  %87 = load ptr, ptr %6, align 8
  %88 = load i32, ptr @hf_ndps_auth_null, align 4
  %89 = load ptr, ptr %4, align 8
  %90 = load i32, ptr %10, align 4
  %91 = call ptr @proto_tree_add_item(ptr noundef %87, i32 noundef %88, ptr noundef %89, i32 noundef %90, i32 noundef 8, i32 noundef 0)
  %92 = load i32, ptr %10, align 4
  %93 = add i32 %92, 8
  store i32 %93, ptr %10, align 4
  br label %105

94:                                               ; preds = %71
  %95 = load i32, ptr %10, align 4
  %96 = add i32 %95, 4
  store i32 %96, ptr %10, align 4
  %97 = load ptr, ptr %6, align 8
  %98 = load i32, ptr @hf_ndps_rpc_rej_stat, align 4
  %99 = load ptr, ptr %4, align 8
  %100 = load i32, ptr %10, align 4
  %101 = add i32 %100, 4
  %102 = call ptr @proto_tree_add_item(ptr noundef %97, i32 noundef %98, ptr noundef %99, i32 noundef %101, i32 noundef 4, i32 noundef 0)
  %103 = load i32, ptr %10, align 4
  %104 = add i32 %103, 4
  store i32 %104, ptr %10, align 4
  br label %105

105:                                              ; preds = %94, %84
  %106 = load ptr, ptr %4, align 8
  %107 = load ptr, ptr %5, align 8
  %108 = load ptr, ptr %6, align 8
  %109 = load i32, ptr %10, align 4
  %110 = call i32 @dissect_ndps_reply(ptr noundef %106, ptr noundef %107, ptr noundef %108, i32 noundef %109)
  br label %215

111:                                              ; preds = %32
  %112 = load ptr, ptr %5, align 8
  %113 = getelementptr inbounds %struct._packet_info, ptr %112, i32 0, i32 1
  %114 = load ptr, ptr %113, align 8
  call void @col_set_str(ptr noundef %114, i32 noundef 25, ptr noundef @.str.1702)
  %115 = load ptr, ptr %6, align 8
  %116 = load i32, ptr @hf_ndps_rpc_version, align 4
  %117 = load ptr, ptr %4, align 8
  %118 = load i32, ptr %10, align 4
  %119 = call ptr @proto_tree_add_item(ptr noundef %115, i32 noundef %116, ptr noundef %117, i32 noundef %118, i32 noundef 4, i32 noundef 0)
  %120 = load i32, ptr %10, align 4
  %121 = add i32 %120, 4
  store i32 %121, ptr %10, align 4
  %122 = load ptr, ptr %4, align 8
  %123 = load i32, ptr %10, align 4
  %124 = call i32 @tvb_get_ntohl(ptr noundef %122, i32 noundef %123)
  store i32 %124, ptr %8, align 4
  %125 = load i32, ptr %8, align 4
  %126 = call ptr @try_val_to_str(i32 noundef %125, ptr noundef @spx_ndps_program_vals)
  store ptr %126, ptr %13, align 8
  %127 = load ptr, ptr %13, align 8
  %128 = icmp ne ptr %127, null
  br i1 %128, label %129, label %214

129:                                              ; preds = %111
  %130 = load ptr, ptr %6, align 8
  %131 = load i32, ptr @hf_spx_ndps_program, align 4
  %132 = load ptr, ptr %4, align 8
  %133 = load i32, ptr %10, align 4
  %134 = call ptr @proto_tree_add_item(ptr noundef %130, i32 noundef %131, ptr noundef %132, i32 noundef %133, i32 noundef 4, i32 noundef 0)
  %135 = load i32, ptr %10, align 4
  %136 = add i32 %135, 4
  store i32 %136, ptr %10, align 4
  %137 = load ptr, ptr %5, align 8
  %138 = getelementptr inbounds %struct._packet_info, ptr %137, i32 0, i32 1
  %139 = load ptr, ptr %138, align 8
  %140 = load ptr, ptr %13, align 8
  call void @col_append_str(ptr noundef %139, i32 noundef 25, ptr noundef %140)
  %141 = load ptr, ptr %5, align 8
  %142 = getelementptr inbounds %struct._packet_info, ptr %141, i32 0, i32 1
  %143 = load ptr, ptr %142, align 8
  call void @col_append_str(ptr noundef %143, i32 noundef 25, ptr noundef @.str.1703)
  %144 = load ptr, ptr %6, align 8
  %145 = load i32, ptr @hf_spx_ndps_version, align 4
  %146 = load ptr, ptr %4, align 8
  %147 = load i32, ptr %10, align 4
  %148 = call ptr @proto_tree_add_item(ptr noundef %144, i32 noundef %145, ptr noundef %146, i32 noundef %147, i32 noundef 4, i32 noundef 0)
  %149 = load i32, ptr %10, align 4
  %150 = add i32 %149, 4
  store i32 %150, ptr %10, align 4
  %151 = load ptr, ptr %4, align 8
  %152 = load i32, ptr %10, align 4
  %153 = call i32 @tvb_get_ntohl(ptr noundef %151, i32 noundef %152)
  store i32 %153, ptr %12, align 4
  %154 = load i32, ptr %8, align 4
  switch i32 %154, label %179 [
    i32 395638, label %155
    i32 395639, label %159
    i32 395640, label %163
    i32 395641, label %167
    i32 395642, label %171
    i32 395643, label %175
  ]

155:                                              ; preds = %129
  %156 = load i32, ptr @hf_spx_ndps_func_print, align 4
  store i32 %156, ptr %11, align 4
  %157 = load i32, ptr %12, align 4
  %158 = call ptr @try_val_to_str_ext(i32 noundef %157, ptr noundef @spx_ndps_print_func_vals_ext)
  store ptr %158, ptr %14, align 8
  br label %180

159:                                              ; preds = %129
  %160 = load i32, ptr @hf_spx_ndps_func_broker, align 4
  store i32 %160, ptr %11, align 4
  %161 = load i32, ptr %12, align 4
  %162 = call ptr @try_val_to_str_ext(i32 noundef %161, ptr noundef @spx_ndps_broker_func_vals_ext)
  store ptr %162, ptr %14, align 8
  br label %180

163:                                              ; preds = %129
  %164 = load i32, ptr @hf_spx_ndps_func_registry, align 4
  store i32 %164, ptr %11, align 4
  %165 = load i32, ptr %12, align 4
  %166 = call ptr @try_val_to_str_ext(i32 noundef %165, ptr noundef @spx_ndps_registry_func_vals_ext)
  store ptr %166, ptr %14, align 8
  br label %180

167:                                              ; preds = %129
  %168 = load i32, ptr @hf_spx_ndps_func_notify, align 4
  store i32 %168, ptr %11, align 4
  %169 = load i32, ptr %12, align 4
  %170 = call ptr @try_val_to_str_ext(i32 noundef %169, ptr noundef @spx_ndps_notify_func_vals_ext)
  store ptr %170, ptr %14, align 8
  br label %180

171:                                              ; preds = %129
  %172 = load i32, ptr @hf_spx_ndps_func_resman, align 4
  store i32 %172, ptr %11, align 4
  %173 = load i32, ptr %12, align 4
  %174 = call ptr @try_val_to_str_ext(i32 noundef %173, ptr noundef @spx_ndps_resman_func_vals_ext)
  store ptr %174, ptr %14, align 8
  br label %180

175:                                              ; preds = %129
  %176 = load i32, ptr @hf_spx_ndps_func_delivery, align 4
  store i32 %176, ptr %11, align 4
  %177 = load i32, ptr %12, align 4
  %178 = call ptr @try_val_to_str(i32 noundef %177, ptr noundef @spx_ndps_deliver_func_vals)
  store ptr %178, ptr %14, align 8
  br label %180

179:                                              ; preds = %129
  store i32 0, ptr %11, align 4
  store ptr null, ptr %14, align 8
  br label %180

180:                                              ; preds = %179, %175, %171, %167, %163, %159, %155
  %181 = load i32, ptr %11, align 4
  %182 = icmp ne i32 %181, 0
  br i1 %182, label %183, label %213

183:                                              ; preds = %180
  %184 = load ptr, ptr %6, align 8
  %185 = load i32, ptr %11, align 4
  %186 = load ptr, ptr %4, align 8
  %187 = load i32, ptr %10, align 4
  %188 = call ptr @proto_tree_add_item(ptr noundef %184, i32 noundef %185, ptr noundef %186, i32 noundef %187, i32 noundef 4, i32 noundef 0)
  %189 = load ptr, ptr %14, align 8
  %190 = icmp ne ptr %189, null
  br i1 %190, label %191, label %212

191:                                              ; preds = %183
  %192 = load ptr, ptr %5, align 8
  %193 = getelementptr inbounds %struct._packet_info, ptr %192, i32 0, i32 1
  %194 = load ptr, ptr %193, align 8
  %195 = load ptr, ptr %14, align 8
  call void @col_append_str(ptr noundef %194, i32 noundef 25, ptr noundef %195)
  %196 = load i32, ptr %10, align 4
  %197 = add i32 %196, 4
  store i32 %197, ptr %10, align 4
  %198 = load ptr, ptr %6, align 8
  %199 = load i32, ptr @hf_ndps_auth_null, align 4
  %200 = load ptr, ptr %4, align 8
  %201 = load i32, ptr %10, align 4
  %202 = call ptr @proto_tree_add_item(ptr noundef %198, i32 noundef %199, ptr noundef %200, i32 noundef %201, i32 noundef 16, i32 noundef 0)
  %203 = load i32, ptr %10, align 4
  %204 = add i32 %203, 16
  store i32 %204, ptr %10, align 4
  %205 = load ptr, ptr %4, align 8
  %206 = load ptr, ptr %5, align 8
  %207 = load ptr, ptr %6, align 8
  %208 = load i32, ptr %8, align 4
  %209 = load i32, ptr %12, align 4
  %210 = load i32, ptr %10, align 4
  %211 = call i32 @dissect_ndps_request(ptr noundef %205, ptr noundef %206, ptr noundef %207, i32 noundef %208, i32 noundef %209, i32 noundef %210)
  br label %212

212:                                              ; preds = %191, %183
  br label %213

213:                                              ; preds = %212, %180
  br label %214

214:                                              ; preds = %213, %111
  br label %215

215:                                              ; preds = %214, %105, %22
  ret void
}