; Function Attrs: nounwind uwtable
define internal fastcc void @dissect_ndps(ptr noundef %0, ptr noundef %1, ptr noundef %2) unnamed_addr #0 {
  %4 = tail call i32 @tvb_get_ntohl(ptr noundef %0, i32 noundef 8) #6
  %or.cond = icmp ugt i32 %4, 1
  br i1 %or.cond, label %5, label %11

5:                                                ; preds = %3
  %6 = getelementptr inbounds nuw i8, ptr %1, i64 8
  %7 = load ptr, ptr %6, align 8
  tail call void @col_set_str(ptr noundef %7, i32 noundef 25, ptr noundef nonnull @.str.1699) #6
  %8 = load i32, ptr @hf_ndps_data, align 4
  %9 = tail call i32 @tvb_reported_length(ptr noundef %0) #6
  %10 = tail call ptr (ptr, i32, ptr, i32, i32, ptr, ptr, ...) @proto_tree_add_bytes_format(ptr noundef %2, i32 noundef %8, ptr noundef %0, i32 noundef 0, i32 noundef -1, ptr noundef null, ptr noundef nonnull @.str.1700, i32 noundef %9) #6
  br label %.thread

11:                                               ; preds = %3
  %12 = load i32, ptr @hf_ndps_record_mark, align 4
  %13 = tail call ptr @proto_tree_add_item(ptr noundef %2, i32 noundef %12, ptr noundef %0, i32 noundef 0, i32 noundef 2, i32 noundef 0) #6
  %14 = load i32, ptr @hf_ndps_length, align 4
  %15 = tail call ptr @proto_tree_add_item(ptr noundef %2, i32 noundef %14, ptr noundef %0, i32 noundef 2, i32 noundef 2, i32 noundef 0) #6
  %16 = tail call i32 @tvb_get_ntohl(ptr noundef %0, i32 noundef 4) #6
  %17 = load i32, ptr @hf_ndps_xid, align 4
  %18 = tail call ptr @proto_tree_add_uint(ptr noundef %2, i32 noundef %17, ptr noundef %0, i32 noundef 4, i32 noundef 4, i32 noundef %16) #6
  %19 = tail call i32 @tvb_get_ntohl(ptr noundef %0, i32 noundef 8) #6
  %20 = load i32, ptr @hf_ndps_packet_type, align 4
  %21 = tail call ptr @proto_tree_add_uint(ptr noundef %2, i32 noundef %20, ptr noundef %0, i32 noundef 8, i32 noundef 4, i32 noundef %19) #6
  %22 = icmp eq i32 %19, 1
  %23 = getelementptr inbounds nuw i8, ptr %1, i64 8
  %24 = load ptr, ptr %23, align 8
  br i1 %22, label %25, label %34

25:                                               ; preds = %11
  tail call void @col_set_str(ptr noundef %24, i32 noundef 25, ptr noundef nonnull @.str.1701) #6
  %26 = load i32, ptr @hf_ndps_rpc_accept, align 4
  %27 = tail call ptr @proto_tree_add_item(ptr noundef %2, i32 noundef %26, ptr noundef %0, i32 noundef 12, i32 noundef 4, i32 noundef 0) #6
  %28 = tail call i32 @tvb_get_ntohl(ptr noundef %0, i32 noundef 12) #6
  %29 = icmp eq i32 %28, 0
  br i1 %29, label %.split101, label %.split

.split101:                                        ; preds = %25
  %30 = load i32, ptr @hf_ndps_auth_null, align 4
  %31 = tail call ptr @proto_tree_add_item(ptr noundef %2, i32 noundef %30, ptr noundef %0, i32 noundef 16, i32 noundef 8, i32 noundef 0) #6
  tail call fastcc void @dissect_ndps_reply(ptr noundef %0, ptr noundef nonnull %1, ptr noundef %2, i32 noundef 24)
  br label %.thread

.split:                                           ; preds = %25
  %32 = load i32, ptr @hf_ndps_rpc_rej_stat, align 4
  %33 = tail call ptr @proto_tree_add_item(ptr noundef %2, i32 noundef %32, ptr noundef %0, i32 noundef 20, i32 noundef 4, i32 noundef 0) #6
  tail call fastcc void @dissect_ndps_reply(ptr noundef %0, ptr noundef nonnull %1, ptr noundef %2, i32 noundef 20)
  br label %.thread

34:                                               ; preds = %11
  tail call void @col_set_str(ptr noundef %24, i32 noundef 25, ptr noundef nonnull @.str.1702) #6
  %35 = load i32, ptr @hf_ndps_rpc_version, align 4
  %36 = tail call ptr @proto_tree_add_item(ptr noundef %2, i32 noundef %35, ptr noundef %0, i32 noundef 12, i32 noundef 4, i32 noundef 0) #6
  %37 = tail call i32 @tvb_get_ntohl(ptr noundef %0, i32 noundef 16) #6
  %38 = tail call ptr @try_val_to_str(i32 noundef %37, ptr noundef nonnull @spx_ndps_program_vals) #6
  %.not = icmp eq ptr %38, null
  br i1 %.not, label %.thread, label %39

39:                                               ; preds = %34
  %40 = load i32, ptr @hf_spx_ndps_program, align 4
  %41 = tail call ptr @proto_tree_add_item(ptr noundef %2, i32 noundef %40, ptr noundef %0, i32 noundef 16, i32 noundef 4, i32 noundef 0) #6
  %42 = load ptr, ptr %23, align 8
  tail call void @col_append_str(ptr noundef %42, i32 noundef 25, ptr noundef nonnull %38) #6
  %43 = load ptr, ptr %23, align 8
  tail call void @col_append_str(ptr noundef %43, i32 noundef 25, ptr noundef nonnull @.str.1703) #6
  %44 = load i32, ptr @hf_spx_ndps_version, align 4
  %45 = tail call ptr @proto_tree_add_item(ptr noundef %2, i32 noundef %44, ptr noundef %0, i32 noundef 20, i32 noundef 4, i32 noundef 0) #6
  %46 = tail call i32 @tvb_get_ntohl(ptr noundef %0, i32 noundef 24) #6
  switch i32 %37, label %.thread [
    i32 395638, label %47
    i32 395639, label %50
    i32 395640, label %53
    i32 395641, label %56
    i32 395642, label %59
    i32 395643, label %62
  ]

47:                                               ; preds = %39
  %48 = load i32, ptr @hf_spx_ndps_func_print, align 4
  %49 = tail call ptr @try_val_to_str_ext(i32 noundef %46, ptr noundef nonnull @spx_ndps_print_func_vals_ext) #6
  br label %65

50:                                               ; preds = %39
  %51 = load i32, ptr @hf_spx_ndps_func_broker, align 4
  %52 = tail call ptr @try_val_to_str_ext(i32 noundef %46, ptr noundef nonnull @spx_ndps_broker_func_vals_ext) #6
  br label %65

53:                                               ; preds = %39
  %54 = load i32, ptr @hf_spx_ndps_func_registry, align 4
  %55 = tail call ptr @try_val_to_str_ext(i32 noundef %46, ptr noundef nonnull @spx_ndps_registry_func_vals_ext) #6
  br label %65

56:                                               ; preds = %39
  %57 = load i32, ptr @hf_spx_ndps_func_notify, align 4
  %58 = tail call ptr @try_val_to_str_ext(i32 noundef %46, ptr noundef nonnull @spx_ndps_notify_func_vals_ext) #6
  br label %65

59:                                               ; preds = %39
  %60 = load i32, ptr @hf_spx_ndps_func_resman, align 4
  %61 = tail call ptr @try_val_to_str_ext(i32 noundef %46, ptr noundef nonnull @spx_ndps_resman_func_vals_ext) #6
  br label %65

62:                                               ; preds = %39
  %63 = load i32, ptr @hf_spx_ndps_func_delivery, align 4
  %64 = tail call ptr @try_val_to_str(i32 noundef %46, ptr noundef nonnull @spx_ndps_deliver_func_vals) #6
  br label %65

65:                                               ; preds = %62, %59, %56, %53, %50, %47
  %.099 = phi i32 [ %63, %62 ], [ %60, %59 ], [ %57, %56 ], [ %54, %53 ], [ %51, %50 ], [ %48, %47 ]
  %.0 = phi ptr [ %64, %62 ], [ %61, %59 ], [ %58, %56 ], [ %55, %53 ], [ %52, %50 ], [ %49, %47 ]
  %.not103 = icmp eq i32 %.099, 0
  br i1 %.not103, label %.thread, label %66

66:                                               ; preds = %65
  %67 = tail call ptr @proto_tree_add_item(ptr noundef %2, i32 noundef %.099, ptr noundef %0, i32 noundef 24, i32 noundef 4, i32 noundef 0) #6
  %.not104 = icmp eq ptr %.0, null
  br i1 %.not104, label %.thread, label %68

68:                                               ; preds = %66
  %69 = load ptr, ptr %23, align 8
  tail call void @col_append_str(ptr noundef %69, i32 noundef 25, ptr noundef nonnull %.0) #6
  %70 = load i32, ptr @hf_ndps_auth_null, align 4
  %71 = tail call ptr @proto_tree_add_item(ptr noundef %2, i32 noundef %70, ptr noundef %0, i32 noundef 28, i32 noundef 16, i32 noundef 0) #6
  tail call fastcc void @dissect_ndps_request(ptr noundef %0, ptr noundef nonnull %1, ptr noundef %2, i32 noundef %37, i32 noundef %46)
  br label %.thread

.thread:                                          ; preds = %39, %.split101, %.split, %34, %66, %68, %65, %5
  ret void
}